ccollections
defaultdict
p0
(c__builtin__
list
p1
tp2
Rp3
I1
(lp4
(dp5
S'expected'
p6
I100
sS'login'
p7
Vsako0938
p8
sS'score'
p9
I100
sS'name'
p10
S'Sam Korn'
p11
sS'ambiguity'
p12
I00
sa(dp13
g6
I100
sg7
Vdano8957
p14
sg9
I100
sg10
S'Daniel Nolan'
p15
sg12
I00
sa(dp16
g6
I100
sg7
Vrodenr
p17
sg9
I100
sg10
S'Ryan Roden'
p18
sg12
I00
sa(dp19
g6
I15
sg7
Vjakewhite8
p20
sg9
I15
sg10
S'Jake White'
p21
sg12
I00
sa(dp22
g6
I100
sg7
VJoshFerge
p23
sg9
I100
sg10
S'Joshua Ferge'
p24
sg12
I00
sa(dp25
g6
I100
sg7
Vianks
p26
sg9
I100
sg10
S'Ian Ker-Seymer'
p27
sg12
I00
sa(dp28
g6
I100
sg7
Vdevelra
p29
sg9
I100
sg10
S'Michael Aaron'
p30
sg12
I00
sa(dp31
g6
I100
sg7
Vindiesquidge
p32
sg9
I100
sg10
S'Austin Wood'
p33
sg12
I00
sa(dp34
g6
I100
sg7
Vmsg425
p35
sg9
I100
sg10
S'Manpreet Singh'
p36
sg12
I00
sa(dp37
g6
I100
sg7
VLoganBates
p38
sg9
I100
sg10
S'Logan Bates'
p39
sg12
I00
sa(dp40
g6
I0
sg7
Vpeymanmortazavi
p41
sg9
I100
sg10
S'Peyman Mortazavi'
p42
sg12
I00
sa(dp43
g6
I100
sg7
VIrfann1
p44
sg9
I100
sg10
S'Irfan Nadiadi'
p45
sg12
I00
sa(dp46
g6
I100
sg7
Vthefyk
p47
sg9
I100
sg10
S'Michael Fyk'
p48
sg12
I00
sa(dp49
g6
I100
sg7
Vdawsonbotsford
p50
sg9
I100
sg10
S'Dawson Botsford'
p51
sg12
I00
sa(dp52
g6
I100
sg7
Vjakecharland
p53
sg9
I100
sg10
S'Jake Charland'
p54
sg12
I00
sa(dp55
g6
I100
sg7
VBrianNewsom
p56
sg9
I100
sg10
S'Brian Newsom'
p57
sg12
I00
sa(dp58
g6
I95
sg7
Vantsankov
p59
sg9
I95
sg10
S'Alexander Tsankov'
p60
sg12
I00
sa(dp61
g6
I100
sg7
Vcwitty1919
p62
sg9
I100
sg10
S'Chris Wittenberg'
p63
sg12
I00
sa(dp64
g6
I100
sg7
Vdare599z
p65
sg9
I100
sg10
S'Justin McBride'
p66
sg12
I00
sasI2
(lp67
(dp68
g6
I0
sg7
Vsako0938
p69
sg9
I0
sg10
S'Sam Korn'
p70
sg12
I01
sa(dp71
g6
I100
sg7
VJoshFerge
p72
sg9
I100
sg10
S'Joshua Ferge'
p73
sg12
I00
sa(dp74
g6
I100
sg7
Vindiesquidge
p75
sg9
I100
sg10
S'Austin Wood'
p76
sg12
I00
sa(dp77
g6
I100
sg7
Vdano8957
p78
sg9
I100
sg10
S'Daniel Nolan'
p79
sg12
I00
sa(dp80
g6
I60
sg7
VLoganBates
p81
sg9
I68
sg10
S'Logan Bates'
p82
sg12
I00
sa(dp83
g6
I40
sg7
Vjakewhite8
p84
sg9
I41
sg10
S'Jake White'
p85
sg12
I00
sa(dp86
g6
I100
sg7
Vdare599z
p87
sg9
I100
sg10
S'Justin McBride'
p88
sg12
I00
sa(dp89
g6
I100
sg7
VIrfann1
p90
sg9
I100
sg10
S'Irfan Nadiadi'
p91
sg12
I00
sa(dp92
g6
I100
sg7
Vianks
p93
sg9
I100
sg10
S'Ian Ker-Seymer'
p94
sg12
I00
sa(dp95
g6
I100
sg7
Vrodenr
p96
sg9
I100
sg10
S'Ryan Roden'
p97
sg12
I00
sa(dp98
g6
I81
sg7
Vnikitavoskoboynik
p99
sg9
I86
sg10
S'Nikita Voskoboynik'
p100
sg12
I00
sa(dp101
g6
I100
sg7
Vdawsonbotsford
p102
sg9
I100
sg10
S'Dawson Botsford(received help from Brian Newsom on some)'
p103
sg12
I00
sa(dp104
g6
I100
sg7
Vdevelra
p105
sg9
I100
sg10
S'Michael Aaron'
p106
sg12
I00
sa(dp107
g6
I100
sg7
Vnfejes
p108
sg9
I100
sg10
S'Niklas Fejes'
p109
sg12
I00
sa(dp110
g6
I90
sg7
Vmasi8397
p111
sg9
I100
sg10
S'Marc Simpson'
p112
sg12
I00
sa(dp113
g6
I94
sg7
Vthefyk
p114
sg9
I100
sg10
S'Michael Fyk'
p115
sg12
I00
sa(dp116
g6
I100
sg7
Vcwitty1919
p117
sg9
I100
sg10
S'Chris Wittenberg'
p118
sg12
I00
sa(dp119
g6
I100
sg7
Vpeymanmortazavi
p120
sg9
I100
sg10
S'Peyman Mortazavi'
p121
sg12
I00
sa(dp122
g6
I100
sg7
Vjakecharland
p123
sg9
I100
sg10
S'Jake Charland'
p124
sg12
I00
sa(dp125
g6
I100
sg7
Vadrian-chen
p126
sg9
I100
sg10
S'Adrian Chen'
p127
sg12
I00
sa(dp128
g6
I100
sg7
Vantsankov
p129
sg9
I100
sg10
S'Alexander Tsankov'
p130
sg12
I00
sa(dp131
g6
I100
sg7
VBrianNewsom
p132
sg9
I100
sg10
S'Brian Newsom'
p133
sg12
I00
sa(dp134
g6
I100
sg7
Valne4294
p135
sg9
I100
sg10
S'Alexia Newgord'
p136
sg12
I00
sa(dp137
g6
I100
sg7
Vmsg425
p138
sg9
I100
sg10
S'Manpreet Singh'
p139
sg12
I00
sasI3
(lp140
(dp141
g6
I0
sg7
Vnikitavoskoboynik
p142
sg9
I12
sg10
S'Nikita Voskoboynik'
p143
sg12
I00
sa(dp144
g6
I100
sg7
Vdano8957
p145
sg9
I100
sg10
S'Daniel Nolan'
p146
sg12
I00
sa(dp147
g6
I100
sg7
Vindiesquidge
p148
sg9
I100
sg10
S'Austin Wood'
p149
sg12
I00
sa(dp150
g6
I100
sg7
Vdevelra
p151
sg9
I100
sg10
S'Michael Aaron'
p152
sg12
I00
sa(dp153
g6
I100
sg7
VLoganBates
p154
sg9
I100
sg10
S'Logan Bates'
p155
sg12
I00
sa(dp156
g6
I28
sg7
Vjakewhite8
p157
sg9
I28
sg10
S'Jake White'
p158
sg12
I00
sa(dp159
g6
I97
sg7
Valne4294
p160
sg9
I100
sg10
S'Alexia Newgord'
p161
sg12
I00
sa(dp162
g6
I100
sg7
VJoshFerge
p163
sg9
I100
sg10
S'Joshua Ferge'
p164
sg12
I00
sa(dp165
g6
I92
sg7
Vcwitty1919
p166
sg9
I0
sg10
S'Chris Wittenberg'
p167
sg12
I01
sa(dp168
g6
I100
sg7
Vdawsonbotsford
p169
sg9
I100
sg10
S'Dawson Botsford'
p170
sg12
I00
sa(dp171
g6
I100
sg7
Vianks
p172
sg9
I100
sg10
S'Ian Ker-Seymer'
p173
sg12
I00
sa(dp174
g6
I100
sg7
VIrfann1
p175
sg9
I100
sg10
S'Irfan Nadiadi'
p176
sg12
I00
sa(dp177
g6
I60
sg7
Vmasi8397
p178
sg9
I96
sg10
S'Marc Simpson'
p179
sg12
I00
sa(dp180
g6
I100
sg7
Vadrian-chen
p181
sg9
I100
sg10
S'Adrian Chen'
p182
sg12
I00
sa(dp183
g6
I100
sg7
Vjakecharland
p184
sg9
I96
sg10
S'Jake Charland'
p185
sg12
I00
sa(dp186
g6
I99
sg7
Vthefyk
p187
sg9
I100
sg10
S'Michael Fyk'
p188
sg12
I00
sa(dp189
g6
I100
sg7
Vpeymanmortazavi
p190
sg9
I100
sg10
S'Peyman Mortazavi'
p191
sg12
I00
sa(dp192
g6
I100
sg7
Vantsankov
p193
sg9
I100
sg10
S'Alex Tsankov'
p194
sg12
I00
sa(dp195
g6
I100
sg7
VBrianNewsom
p196
sg9
I100
sg10
S'Brian Newsom'
p197
sg12
I00
sa(dp198
g6
I100
sg7
Vnfejes
p199
sg9
I100
sg10
S'Niklas Fejes'
p200
sg12
I00
sa(dp201
g6
I100
sg7
Vdare599z
p202
sg9
I100
sg10
S'Justin McBride'
p203
sg12
I00
sasI4
(lp204
(dp205
g6
I100
sg7
Vjakecharland
p206
sg9
I82
sg10
S'Jake Charland'
p207
sg12
I00
sa(dp208
g6
I100
sg7
Vindiesquidge
p209
sg9
I100
sg10
S'Austin Wood'
p210
sg12
I00
sa(dp211
g6
I65
sg7
Vnikitavoskoboynik
p212
sg9
I64
sg10
S'Nikita Voskoboynik'
p213
sg12
I00
sa(dp214
g6
I88
sg7
Valne4294
p215
sg9
I100
sg10
S'Alexia Newgord'
p216
sg12
I00
sa(dp217
g6
I50
sg7
Vjakewhite8
p218
sg9
I50
sg10
S'Jake White'
p219
sg12
I00
sa(dp220
g6
I100
sg7
Vnfejes
p221
sg9
I100
sg10
S'Niklas Fejes'
p222
sg12
I00
sa(dp223
g6
I90
sg7
VIrfann1
p224
sg9
I100
sg10
S'Irfan Nadiadi'
p225
sg12
I00
sa(dp226
g6
I100
sg7
Vdare599z
p227
sg9
I100
sg10
S'Justin McBride'
p228
sg12
I00
sa(dp229
g6
I100
sg7
VLoganBates
p230
sg9
I100
sg10
S'Logan Bates'
p231
sg12
I00
sa(dp232
g6
I100
sg7
Vianks
p233
sg9
I100
sg10
S'Ian Ker-Seymer'
p234
sg12
I00
sa(dp235
g6
I100
sg7
Vdano8957
p236
sg9
I100
sg10
S'Daniel Nolan'
p237
sg12
I00
sa(dp238
g6
I100
sg7
Vcwitty1919
p239
sg9
I100
sg10
S'Chris Wittenebrg'
p240
sg12
I00
sa(dp241
g6
I100
sg7
VJoshFerge
p242
sg9
I100
sg10
S'Joshua Ferge'
p243
sg12
I00
sa(dp244
g6
I100
sg7
Vthefyk
p245
sg9
I100
sg10
S'Michael Fyk'
p246
sg12
I00
sa(dp247
g6
I100
sg7
Vadrian-chen
p248
sg9
I100
sg10
S'Adrian Chen'
p249
sg12
I00
sa(dp250
g6
I80
sg7
Vmasi8397
p251
sg9
I0
sg10
g251
sg12
I01
sa(dp252
g6
I100
sg7
Vdevelra
p253
sg9
I100
sg10
S'Michael Aaron'
p254
sg12
I00
sa(dp255
g6
I100
sg7
Vpeymanmortazavi
p256
sg9
I100
sg10
S'Peyman Mortazavi'
p257
sg12
I00
sa(dp258
g6
I100
sg7
VBrianNewsom
p259
sg9
I100
sg10
S'Brian Newsom'
p260
sg12
I00
sa(dp261
g6
I100
sg7
Vantsankov
p262
sg9
I100
sg10
S'Alexander Tsankov'
p263
sg12
I00
sa(dp264
g6
I100
sg7
Vdawsonbotsford
p265
sg9
I100
sg10
S'Dawson Botsford'
p266
sg12
I00
sasI5
(lp267
(dp268
g6
I95
sg7
Vdevelra
p269
sg9
I100
sg10
S'Michael Aaron'
p270
sg12
I00
sa(dp271
g6
I88
sg7
Vrodenr
p272
sg9
I92
sg10
S'Ryan Roden'
p273
sg12
I00
sa(dp274
g6
I86
sg7
Vjakewhite8
p275
sg9
I83
sg10
S'Jake White'
p276
sg12
I00
sa(dp277
g6
I100
sg7
VJoshFerge
p278
sg9
I100
sg10
S'Joshua Ferge'
p279
sg12
I00
sa(dp280
g6
I100
sg7
Vdare599z
p281
sg9
I100
sg10
S'Justin McBride'
p282
sg12
I00
sa(dp283
g6
I100
sg7
Vsako0938
p284
sg9
I100
sg10
S'Sam Korn'
p285
sg12
I00
sa(dp286
g6
I100
sg7
Vadrian-chen
p287
sg9
I0
sg10
S'Adrian Chen'
p288
sg12
I01
sa(dp289
g6
I100
sg7
Vcwitty1919
p290
sg9
I0
sg10
S'Chris Wittenberg'
p291
sg12
I01
sa(dp292
g6
I100
sg7
VLoganBates
p293
sg9
I100
sg10
S'Logan Bates'
p294
sg12
I00
sa(dp295
g6
I100
sg7
Vdano8957
p296
sg9
I100
sg10
S'Daniel Nolan'
p297
sg12
I00
sa(dp298
g6
I90
sg7
Vmasi8397
p299
sg9
I100
sg10
S'Marc Simpson'
p300
sg12
I00
sa(dp301
g6
I100
sg7
Vnfejes
p302
sg9
I100
sg10
S'Niklas Fejes'
p303
sg12
I00
sa(dp304
g6
I80
sg7
Vnikitavoskoboynik
p305
sg9
I100
sg10
S'Nikita Voskoboynik'
p306
sg12
I00
sa(dp307
g6
I86
sg7
VIrfann1
p308
sg9
I100
sg10
S'Irfan Nadiadi'
p309
sg12
I00
sa(dp310
g6
I100
sg7
Vpeymanmortazavi
p311
sg9
I0
sg10
S'Peyman Mortazavi'
p312
sg12
I01
sa(dp313
g6
I97
sg7
VBrianNewsom
p314
sg9
I0
sg10
S'Brian Newsom'
p315
sg12
I01
sa(dp316
g6
I100
sg7
Vjakecharland
p317
sg9
I100
sg10
S'Jake Charland'
p318
sg12
I00
sa(dp319
g6
I99
sg7
Valne4294
p320
sg9
I100
sg10
S'Alexia Newgord'
p321
sg12
I00
sa(dp322
g6
I100
sg7
Vindiesquidge
p323
sg9
I100
sg10
S'Austin Wood'
p324
sg12
I00
sa(dp325
g6
I100
sg7
Vianks
p326
sg9
I100
sg10
S'Ian'
p327
sg12
I00
sa(dp328
g6
I100
sg7
Vthefyk
p329
sg9
I100
sg10
S'Michael Fyk'
p330
sg12
I00
sa(dp331
g6
I100
sg7
Vdawsonbotsford
p332
sg9
I0
sg10
S'Dawson Botsford'
p333
sg12
I01
sa(dp334
g6
I98
sg7
Vantsankov
p335
sg9
I0
sg10
S'Alexander Tsankov'
p336
sg12
I01
sasI6
(lp337
(dp338
g6
I100
sg7
Vsako0938
p339
sg9
I0
sg10
S'Sam Korn'
p340
sg12
I01
sa(dp341
g6
I100
sg7
Vindiesquidge
p342
sg9
I100
sg10
S'Austin Wood'
p343
sg12
I00
sa(dp344
g6
I100
sg7
Vdano8957
p345
sg9
I100
sg10
S'Daniel Nolan'
p346
sg12
I00
sa(dp347
g6
I60
sg7
VIrfann1
p348
sg9
I100
sg10
S'Irfan Nadiadi'
p349
sg12
I00
sa(dp350
g6
I60
sg7
Vnikitavoskoboynik
p351
sg9
I61
sg10
S'Nikita Voskoboynik'
p352
sg12
I00
sa(dp353
g6
I94
sg7
Vdare599z
p354
sg9
I100
sg10
S'Justin McBride'
p355
sg12
I00
sa(dp356
g6
I100
sg7
VJoshFerge
p357
sg9
I100
sg10
S'Joshua Ferge'
p358
sg12
I00
sa(dp359
g6
I77
sg7
Vjakewhite8
p360
sg9
I77
sg10
S'Jake White'
p361
sg12
I00
sa(dp362
g6
I100
sg7
Vdawsonbotsford
p363
sg9
I100
sg10
S'Dawson Botsford'
p364
sg12
I00
sa(dp365
g6
I94
sg7
Vthefyk
p366
sg9
I94
sg10
S'Michael Fyk'
p367
sg12
I00
sa(dp368
g6
I100
sg7
Vianks
p369
sg9
I100
sg10
S'Ian Ker-Seymer'
p370
sg12
I00
sa(dp371
g6
I100
sg7
VLoganBates
p372
sg9
I100
sg10
S'Logan Bates'
p373
sg12
I00
sa(dp374
g6
I100
sg7
Vpeymanmortazavi
p375
sg9
I100
sg10
S'Peyman Mortazavi'
p376
sg12
I00
sa(dp377
g6
I100
sg7
Vnfejes
p378
sg9
I100
sg10
S'Niklas Fejes'
p379
sg12
I00
sa(dp380
g6
I90
sg7
Vmasi8397
p381
sg9
I100
sg10
S'Marc Simpson'
p382
sg12
I00
sa(dp383
g6
I100
sg7
Vadrian-chen
p384
sg9
I100
sg10
S'Adrian Chen'
p385
sg12
I00
sa(dp386
g6
I100
sg7
Vcwitty1919
p387
sg9
I100
sg10
S'Chris Wittenberg'
p388
sg12
I00
sa(dp389
g6
I100
sg7
Vantsankov
p390
sg9
I100
sg10
S'Alexander Tsankov'
p391
sg12
I00
sa(dp392
g6
I100
sg7
VBrianNewsom
p393
sg9
I100
sg10
S'Brian Newsom'
p394
sg12
I00
sa(dp395
g6
I0
sg7
Vjakecharland
p396
sg9
I100
sg10
S'Jake Charland'
p397
sg12
I00
sa(dp398
g6
I100
sg7
Valne4294
p399
sg9
I100
sg10
S'Alexia Newgord'
p400
sg12
I00
sasI7
(lp401
(dp402
g6
I100
sg7
Vsako0938
p403
sg9
I100
sg10
S'Sam Korn'
p404
sg12
I00
sa(dp405
g6
I40
sg7
Vjakewhite8
p406
sg9
I35
sg10
S'Jake White'
p407
sg12
I00
sa(dp408
g6
I100
sg7
Vdevelra
p409
sg9
I100
sg10
S'write-your-name'
p410
sg12
I00
sa(dp411
g6
I100
sg7
Vindiesquidge
p412
sg9
I100
sg10
S'Austin Wood'
p413
sg12
I00
sa(dp414
g6
I100
sg7
Vnfejes
p415
sg9
I100
sg10
S'Niklas Fejes'
p416
sg12
I00
sa(dp417
g6
I100
sg7
Vdano8957
p418
sg9
I100
sg10
S'Daniel Nolan'
p419
sg12
I00
sa(dp420
g6
I100
sg7
Valne4294
p421
sg9
I100
sg10
S'Alexia Newgord'
p422
sg12
I00
sa(dp423
g6
I60
sg7
Vnikitavoskoboynik
p424
sg9
I60
sg10
S'Nikita Voskoboynik'
p425
sg12
I00
sa(dp426
g6
I100
sg7
Vianks
p427
sg9
I0
sg10
S'Ian Ker-Seymer'
p428
sg12
I01
sa(dp429
g6
I100
sg7
VIrfann1
p430
sg9
I100
sg10
S'Irfan Nadiadi'
p431
sg12
I00
sa(dp432
g6
I100
sg7
VLoganBates
p433
sg9
I100
sg10
S'Logan Bates'
p434
sg12
I00
sa(dp435
g6
I80
sg7
Vdare599z
p436
sg9
I100
sg10
S'Justin McBride'
p437
sg12
I00
sa(dp438
g6
I95
sg7
Vthefyk
p439
sg9
I100
sg10
S'Michael Fyk'
p440
sg12
I00
sa(dp441
g6
I95
sg7
Vjakecharland
p442
sg9
I95
sg10
S'Jake Charland'
p443
sg12
I00
sa(dp444
g6
I100
sg7
Vpeymanmortazavi
p445
sg9
I100
sg10
S'Peyman Mortazavi'
p446
sg12
I00
sa(dp447
g6
I100
sg7
Vcwitty1919
p448
sg9
I100
sg10
S'Chris Wittenberg'
p449
sg12
I00
sa(dp450
g6
I100
sg7
Vadrian-chen
p451
sg9
I100
sg10
S'Adrian Chen'
p452
sg12
I00
sa(dp453
g6
I100
sg7
VJoshFerge
p454
sg9
I100
sg10
S'Joshua Ferge'
p455
sg12
I00
sa(dp456
g6
I100
sg7
VBrianNewsom
p457
sg9
I100
sg10
S'Brian Newsom'
p458
sg12
I00
sa(dp459
g6
I95
sg7
Vmasi8397
p460
sg9
I100
sg10
S'Marc Simpson'
p461
sg12
I00
sa(dp462
g6
I100
sg7
Vdawsonbotsford
p463
sg9
I100
sg10
S'Dawson Botsford'
p464
sg12
I00
sa(dp465
g6
I100
sg7
Vantsankov
p466
sg9
I100
sg10
S'Alex Tsankov'
p467
sg12
I00
sasI8
(lp468
(dp469
g6
I85
sg7
Vindiesquidge
p470
sg9
I0
sg10
S'Austin Wood'
p471
sg12
I01
sa(dp472
g6
I100
sg7
Vdevelra
p473
sg9
I100
sg10
S'Michael Aaron'
p474
sg12
I00
sa(dp475
g6
I45
sg7
Vjakewhite8
p476
sg9
I21
sg10
S'Jake White'
p477
sg12
I00
sa(dp478
g6
I66
sg7
Vantsankov
p479
sg9
I71
sg10
S'Alexander Tsankov'
p480
sg12
I00
sa(dp481
g6
I98
sg7
Valne4294
p482
sg9
I100
sg10
S'Alexia Newgord'
p483
sg12
I00
sa(dp484
g6
I90
sg7
Vpeymanmortazavi
p485
sg9
I86
sg10
S'Peyman Mortazavi'
p486
sg12
I00
sa(dp487
g6
I92
sg7
Vsako0938
p488
sg9
I100
sg10
S'Sam Korn'
p489
sg12
I00
sa(dp490
g6
I96
sg7
Vianks
p491
sg9
I0
sg10
S'Ian Ker-Seymer'
p492
sg12
I01
sa(dp493
g6
I60
sg7
Vcwitty1919
p494
sg9
I54
sg10
S'Chris Wittenberg'
p495
sg12
I00
sa(dp496
g6
I94
sg7
Vdawsonbotsford
p497
sg9
I100
sg10
S'Dawson Botsford'
p498
sg12
I00
sa(dp499
g6
I100
sg7
Vdano8957
p500
sg9
I100
sg10
S'Daniel Nolan'
p501
sg12
I00
sa(dp502
g6
I73
sg7
Vdare599z
p503
sg9
I80
sg10
S'Justin McBride'
p504
sg12
I00
sa(dp505
g6
I87
sg7
VLoganBates
p506
sg9
I100
sg10
S'Logan Bates'
p507
sg12
I00
sa(dp508
g6
I100
sg7
Vnfejes
p509
sg9
I100
sg10
S'Niklas Fejes'
p510
sg12
I00
sa(dp511
g6
I80
sg7
Vnikitavoskoboynik
p512
sg9
I74
sg10
S'Nikita Voskoboynik'
p513
sg12
I00
sa(dp514
g6
I100
sg7
VJoshFerge
p515
sg9
I100
sg10
S'Joshua Ferge'
p516
sg12
I00
sa(dp517
g6
I100
sg7
Vthefyk
p518
sg9
I100
sg10
S'Michael Fyk'
p519
sg12
I00
sa(dp520
g6
I41
sg7
VIrfann1
p521
sg9
I41
sg10
S'Irfan Nadiadi'
p522
sg12
I00
sa(dp523
g6
I80
sg7
Vjakecharland
p524
sg9
I52
sg10
S'Jake Charland'
p525
sg12
I00
sa(dp526
g6
I100
sg7
Vadrian-chen
p527
sg9
I100
sg10
S'Adrian Chen'
p528
sg12
I00
sa(dp529
g6
I95
sg7
Vmasi8397
p530
sg9
I100
sg10
S'Marc Simpson'
p531
sg12
I00
sa(dp532
g6
I100
sg7
VBrianNewsom
p533
sg9
I100
sg10
S'Brian Newsom'
p534
sg12
I00
sasI9
(lp535
(dp536
g6
I100
sg7
Vindiesquidge
p537
sg9
I100
sg10
S'Austin Wood'
p538
sg12
I00
sa(dp539
g6
I84
sg7
VJoshFerge
p540
sg9
I84
sg10
S'Joshua Ferge'
p541
sg12
I00
sa(dp542
g6
I100
sg7
VIrfann1
p543
sg9
I100
sg10
S'Irfan Nadiadi'
p544
sg12
I00
sa(dp545
g6
I100
sg7
Vdano8957
p546
sg9
I100
sg10
S'Daniel Nolan'
p547
sg12
I00
sa(dp548
g6
I100
sg7
VLoganBates
p549
sg9
I94
sg10
S'Logan Bates'
p550
sg12
I00
sa(dp551
g6
I100
sg7
Vpeymanmortazavi
p552
sg9
I100
sg10
S'Peyman Mortazavi'
p553
sg12
I00
sa(dp554
g6
I100
sg7
Vnfejes
p555
sg9
I100
sg10
S'Niklas Fejes'
p556
sg12
I00
sa(dp557
g6
I90
sg7
Vcwitty1919
p558
sg9
I100
sg10
S'Chris Wittenberg'
p559
sg12
I00
sa(dp560
g6
I11
sg7
Vsako0938
p561
sg9
I17
sg10
S'Sam Korn'
p562
sg12
I00
sa(dp563
g6
I98
sg7
Vthefyk
p564
sg9
I100
sg10
S'Michael Fyk'
p565
sg12
I00
sa(dp566
g6
I100
sg7
Vadrian-chen
p567
sg9
I100
sg10
S'Adrian Chen'
p568
sg12
I00
sa(dp569
g6
I100
sg7
Valne4294
p570
sg9
I100
sg10
S'Alexia Newgord'
p571
sg12
I00
sa(dp572
g6
I100
sg7
Vjakecharland
p573
sg9
I0
sg10
S'Jake Charland'
p574
sg12
I01
sa(dp575
g6
I100
sg7
Vdawsonbotsford
p576
sg9
I100
sg10
S'Dawson Botsford'
p577
sg12
I00
sa(dp578
g6
I100
sg7
Vantsankov
p579
sg9
I100
sg10
S'Alexander Tsankov'
p580
sg12
I00
sa(dp581
g6
I100
sg7
Vdare599z
p582
sg9
I100
sg10
S'Justin McBride'
p583
sg12
I00
sa(dp584
g6
I100
sg7
VBrianNewsom
p585
sg9
I100
sg10
S'Brian Newsom'
p586
sg12
I00
sa(dp587
g6
I100
sg7
Vianks
p588
sg9
I100
sg10
S'Ian Ker-Seymer'
p589
sg12
I00
sas.