ccollections
defaultdict
p0
(c__builtin__
list
p1
tp2
Rp3
I8
(lp4
(dp5
S'expected'
p6
I85
sS'login'
p7
Vindiesquidge
p8
sS'score'
p9
I0
sS'name'
p10
S'Austin Wood'
p11
sS'ambiguity'
p12
I01
sa(dp13
g6
I100
sg7
Vdevelra
p14
sg9
I100
sg10
S'Michael Aaron'
p15
sg12
I00
sa(dp16
g6
I45
sg7
Vjakewhite8
p17
sg9
I21
sg10
S'Jake White'
p18
sg12
I00
sa(dp19
g6
I66
sg7
Vantsankov
p20
sg9
I71
sg10
S'Alexander Tsankov'
p21
sg12
I00
sa(dp22
g6
I98
sg7
Valne4294
p23
sg9
I100
sg10
S'Alexia Newgord'
p24
sg12
I00
sa(dp25
g6
I90
sg7
Vpeymanmortazavi
p26
sg9
I86
sg10
S'Peyman Mortazavi'
p27
sg12
I00
sa(dp28
g6
I92
sg7
Vsako0938
p29
sg9
I100
sg10
S'Sam Korn'
p30
sg12
I00
sa(dp31
g6
I96
sg7
Vianks
p32
sg9
I0
sg10
S'Ian Ker-Seymer'
p33
sg12
I01
sa(dp34
g6
I60
sg7
Vcwitty1919
p35
sg9
I54
sg10
S'Chris Wittenberg'
p36
sg12
I00
sa(dp37
g6
I94
sg7
Vdawsonbotsford
p38
sg9
I100
sg10
S'Dawson Botsford'
p39
sg12
I00
sa(dp40
g6
I100
sg7
Vdano8957
p41
sg9
I100
sg10
S'Daniel Nolan'
p42
sg12
I00
sa(dp43
g6
I73
sg7
Vdare599z
p44
sg9
I80
sg10
S'Justin McBride'
p45
sg12
I00
sa(dp46
g6
I87
sg7
VLoganBates
p47
sg9
I100
sg10
S'Logan Bates'
p48
sg12
I00
sa(dp49
g6
I100
sg7
Vnfejes
p50
sg9
I100
sg10
S'Niklas Fejes'
p51
sg12
I00
sa(dp52
g6
I80
sg7
Vnikitavoskoboynik
p53
sg9
I74
sg10
S'Nikita Voskoboynik'
p54
sg12
I00
sa(dp55
g6
I100
sg7
VJoshFerge
p56
sg9
I100
sg10
S'Joshua Ferge'
p57
sg12
I00
sa(dp58
g6
I100
sg7
Vthefyk
p59
sg9
I100
sg10
S'Michael Fyk'
p60
sg12
I00
sa(dp61
g6
I41
sg7
VIrfann1
p62
sg9
I41
sg10
S'Irfan Nadiadi'
p63
sg12
I00
sa(dp64
g6
I80
sg7
Vjakecharland
p65
sg9
I52
sg10
S'Jake Charland'
p66
sg12
I00
sa(dp67
g6
I100
sg7
Vadrian-chen
p68
sg9
I100
sg10
S'Adrian Chen'
p69
sg12
I00
sa(dp70
g6
I95
sg7
Vmasi8397
p71
sg9
I100
sg10
S'Marc Simpson'
p72
sg12
I00
sa(dp73
g6
I100
sg7
VBrianNewsom
p74
sg9
I100
sg10
S'Brian Newsom'
p75
sg12
I00
sasI7
(lp76
(dp77
g6
I100
sg7
Vsako0938
p78
sg9
I100
sg10
S'Sam Korn'
p79
sg12
I00
sa(dp80
g6
I40
sg7
Vjakewhite8
p81
sg9
I35
sg10
S'Jake White'
p82
sg12
I00
sa(dp83
g6
I100
sg7
Vdevelra
p84
sg9
I100
sg10
S'write-your-name'
p85
sg12
I00
sa(dp86
g6
I100
sg7
Vindiesquidge
p87
sg9
I100
sg10
S'Austin Wood'
p88
sg12
I00
sa(dp89
g6
I100
sg7
Vnfejes
p90
sg9
I100
sg10
S'Niklas Fejes'
p91
sg12
I00
sa(dp92
g6
I100
sg7
Vdano8957
p93
sg9
I100
sg10
S'Daniel Nolan'
p94
sg12
I00
sa(dp95
g6
I100
sg7
Valne4294
p96
sg9
I100
sg10
S'Alexia Newgord'
p97
sg12
I00
sa(dp98
g6
I60
sg7
Vnikitavoskoboynik
p99
sg9
I60
sg10
S'Nikita Voskoboynik'
p100
sg12
I00
sa(dp101
g6
I100
sg7
Vianks
p102
sg9
I0
sg10
S'Ian Ker-Seymer'
p103
sg12
I01
sa(dp104
g6
I100
sg7
VIrfann1
p105
sg9
I100
sg10
S'Irfan Nadiadi'
p106
sg12
I00
sa(dp107
g6
I100
sg7
VLoganBates
p108
sg9
I100
sg10
S'Logan Bates'
p109
sg12
I00
sa(dp110
g6
I80
sg7
Vdare599z
p111
sg9
I100
sg10
S'Justin McBride'
p112
sg12
I00
sa(dp113
g6
I95
sg7
Vthefyk
p114
sg9
I100
sg10
S'Michael Fyk'
p115
sg12
I00
sa(dp116
g6
I95
sg7
Vjakecharland
p117
sg9
I95
sg10
S'Jake Charland'
p118
sg12
I00
sa(dp119
g6
I100
sg7
Vpeymanmortazavi
p120
sg9
I100
sg10
S'Peyman Mortazavi'
p121
sg12
I00
sa(dp122
g6
I100
sg7
Vcwitty1919
p123
sg9
I100
sg10
S'Chris Wittenberg'
p124
sg12
I00
sa(dp125
g6
I100
sg7
Vadrian-chen
p126
sg9
I100
sg10
S'Adrian Chen'
p127
sg12
I00
sa(dp128
g6
I100
sg7
VJoshFerge
p129
sg9
I100
sg10
S'Joshua Ferge'
p130
sg12
I00
sa(dp131
g6
I100
sg7
VBrianNewsom
p132
sg9
I100
sg10
S'Brian Newsom'
p133
sg12
I00
sa(dp134
g6
I95
sg7
Vmasi8397
p135
sg9
I100
sg10
S'Marc Simpson'
p136
sg12
I00
sa(dp137
g6
I100
sg7
Vdawsonbotsford
p138
sg9
I100
sg10
S'Dawson Botsford'
p139
sg12
I00
sa(dp140
g6
I100
sg7
Vantsankov
p141
sg9
I100
sg10
S'Alex Tsankov'
p142
sg12
I00
sas.